target datalayout = "e-m:e-p270:32:32-p271:32:32-p272:64:64-i64:64-i128:128-f80:128-n8:16:32:64-S128"
target triple = "x86_64-pc-linux-gnu"

%struct.MEMO = type { i64, i64, i64, i64, %union.anon.17 }
%union.anon.17 = type { i64 }

; Function Attrs: inlinehint nounwind sspstrong willreturn memory(none) uwtable
define internal zeroext i1 @RB_NIL_P(i64 noundef %0) #2 {
  %2 = alloca i64, align 8
  store i64 %0, ptr %2, align 8, !tbaa !7
  %3 = load i64, ptr %2, align 8, !tbaa !7
  %4 = icmp eq i64 %3, 4
  ret i1 %4
}

; Function Attrs: nounwind sspstrong uwtable
define internal i32 @lazy_uniq_check(i64 noundef %0, i64 noundef %1, i64 noundef %2) #0 {
  %4 = alloca i64, align 8
  %5 = alloca i64, align 8
  %6 = alloca i64, align 8
  %7 = alloca i64, align 8
  store i64 %0, ptr %4, align 8, !tbaa !7
  store i64 %1, ptr %5, align 8, !tbaa !7
  store i64 %2, ptr %6, align 8, !tbaa !7
  call void @llvm.lifetime.start.p0(i64 8, ptr %7) #23
  %8 = load i64, ptr %5, align 8, !tbaa !7
  %9 = load i64, ptr %6, align 8, !tbaa !7
  %10 = call i64 @rb_ary_entry(i64 noundef %8, i64 noundef %9) #26
  store i64 %10, ptr %7, align 8, !tbaa !7
  %11 = load i64, ptr %7, align 8, !tbaa !7
  %12 = call zeroext i1 @RB_NIL_P(i64 noundef %11) #24
  br i1 %12, label %13, label %19

13:                                               ; preds = %3
  %14 = call i64 @rb_hash_new()
  %15 = call i64 @rb_obj_hide(i64 noundef %14)
  store i64 %15, ptr %7, align 8, !tbaa !7
  %16 = load i64, ptr %5, align 8, !tbaa !7
  %17 = load i64, ptr %6, align 8, !tbaa !7
  %18 = load i64, ptr %7, align 8, !tbaa !7
  call void @rb_ary_store(i64 noundef %16, i64 noundef %17, i64 noundef %18)
  br label %19

19:                                               ; preds = %13, %3
  %20 = load i64, ptr %7, align 8, !tbaa !7
  %21 = load i64, ptr %4, align 8, !tbaa !7
  %22 = call i32 @rb_hash_add_new_element(i64 noundef %20, i64 noundef %21, i64 noundef 0)
  call void @llvm.lifetime.end.p0(i64 8, ptr %7) #23
  ret i32 %22
}

; Function Attrs: nounwind sspstrong uwtable
define internal ptr @lazy_uniq_proc(i64 noundef %0, ptr noundef %1, i64 noundef %2, i64 noundef %3) #0 {
  %5 = alloca ptr, align 8
  %6 = alloca i64, align 8
  %7 = alloca ptr, align 8
  %8 = alloca i64, align 8
  %9 = alloca i64, align 8
  store i64 %0, ptr %6, align 8, !tbaa !7
  store ptr %1, ptr %7, align 8, !tbaa !101
  store i64 %2, ptr %8, align 8, !tbaa !7
  store i64 %3, ptr %9, align 8, !tbaa !7
  %10 = load ptr, ptr %7, align 8, !tbaa !101
  %11 = getelementptr inbounds nuw %struct.MEMO, ptr %10, i32 0, i32 3
  %12 = load i64, ptr %11, align 8, !tbaa !122
  %13 = load i64, ptr %8, align 8, !tbaa !7
  %14 = load i64, ptr %9, align 8, !tbaa !7
  %15 = call i32 @lazy_uniq_check(i64 noundef %12, i64 noundef %13, i64 noundef %14)
  %16 = icmp ne i32 %15, 0
  br i1 %16, label %17, label %18

17:                                               ; preds = %4
  store ptr null, ptr %5, align 8
  br label %20

18:                                               ; preds = %4
  %19 = load ptr, ptr %7, align 8, !tbaa !101
  store ptr %19, ptr %5, align 8
  br label %20

20:                                               ; preds = %18, %17
  %21 = load ptr, ptr %5, align 8
  ret ptr %21
}