; Function Attrs: nounwind sspstrong uwtable
define internal ptr @lazy_uniq_proc(i64 %0, ptr noundef readonly captures(ret: address, provenance) %1, i64 noundef %2, i64 noundef %3) #0 {
  %5 = getelementptr inbounds nuw i8, ptr %1, i64 24
  %6 = load i64, ptr %5, align 8, !tbaa !105
  %7 = tail call i64 @rb_ary_entry(i64 noundef %2, i64 noundef %3) #25
  %8 = icmp eq i64 %7, 4
  br i1 %8, label %9, label %lazy_uniq_check.exit

9:                                                ; preds = %4
  %10 = tail call i64 @rb_hash_new() #18
  %11 = tail call i64 @rb_obj_hide(i64 noundef %10) #18
  tail call void @rb_ary_store(i64 noundef %2, i64 noundef %3, i64 noundef %11) #18
  br label %lazy_uniq_check.exit

lazy_uniq_check.exit:                             ; preds = %4, %9
  %.0.i = phi i64 [ %11, %9 ], [ %7, %4 ]
  %12 = tail call i32 @rb_hash_add_new_element(i64 noundef %.0.i, i64 noundef %6, i64 noundef 0) #18
  %.not = icmp eq i32 %12, 0
  %. = select i1 %.not, ptr %1, ptr null
  ret ptr %.
}